; Function Attrs: nounwind uwtable
define ptr @av_dynamic_hdr_plus_create_side_data(ptr noundef %0) local_unnamed_addr #0 {
  %2 = tail call ptr @av_frame_new_side_data(ptr noundef %0, i32 noundef 17, i64 noundef 11304) #9
  %.not = icmp eq ptr %2, null
  br i1 %.not, label %7, label %3

3:                                                ; preds = %1
  %4 = getelementptr inbounds nuw i8, ptr %2, i64 8
  %5 = load ptr, ptr %4, align 8, !tbaa !8
  tail call void @llvm.memset.p0.i64(ptr noundef nonnull align 1 dereferenceable(11304) %5, i8 0, i64 11304, i1 false)
  %6 = load ptr, ptr %4, align 8, !tbaa !8
  br label %7

7:                                                ; preds = %1, %3
  %.0 = phi ptr [ %6, %3 ], [ null, %1 ]
  ret ptr %.0
}